target datalayout = "e-m:e-p270:32:32-p271:32:32-p272:64:64-i64:64-i128:128-f80:128-n8:16:32:64-S128"
target triple = "x86_64-pc-linux-gnu"

%struct.png_row_info_struct = type { i32, i64, i8, i8, i8, i8 }

; Function Attrs: nounwind uwtable
define void @png_do_packswap(ptr noundef %0, ptr noundef %1) #0 {
  %3 = alloca ptr, align 8
  %4 = alloca ptr, align 8
  %5 = alloca ptr, align 8
  %6 = alloca ptr, align 8
  %7 = alloca ptr, align 8
  store ptr %0, ptr %3, align 8
  store ptr %1, ptr %4, align 8
  %8 = load ptr, ptr %3, align 8
  %9 = getelementptr inbounds %struct.png_row_info_struct, ptr %8, i32 0, i32 3
  %10 = load i8, ptr %9, align 1
  %11 = zext i8 %10 to i32
  %12 = icmp slt i32 %11, 8
  br i1 %12, label %13, label %60

13:                                               ; preds = %2
  %14 = load ptr, ptr %4, align 8
  %15 = load ptr, ptr %3, align 8
  %16 = getelementptr inbounds %struct.png_row_info_struct, ptr %15, i32 0, i32 1
  %17 = load i64, ptr %16, align 8
  %18 = getelementptr inbounds i8, ptr %14, i64 %17
  store ptr %18, ptr %6, align 8
  %19 = load ptr, ptr %3, align 8
  %20 = getelementptr inbounds %struct.png_row_info_struct, ptr %19, i32 0, i32 3
  %21 = load i8, ptr %20, align 1
  %22 = zext i8 %21 to i32
  %23 = icmp eq i32 %22, 1
  br i1 %23, label %24, label %25

24:                                               ; preds = %13
  store ptr @onebppswaptable, ptr %7, align 8
  br label %42

25:                                               ; preds = %13
  %26 = load ptr, ptr %3, align 8
  %27 = getelementptr inbounds %struct.png_row_info_struct, ptr %26, i32 0, i32 3
  %28 = load i8, ptr %27, align 1
  %29 = zext i8 %28 to i32
  %30 = icmp eq i32 %29, 2
  br i1 %30, label %31, label %32

31:                                               ; preds = %25
  store ptr @twobppswaptable, ptr %7, align 8
  br label %41

32:                                               ; preds = %25
  %33 = load ptr, ptr %3, align 8
  %34 = getelementptr inbounds %struct.png_row_info_struct, ptr %33, i32 0, i32 3
  %35 = load i8, ptr %34, align 1
  %36 = zext i8 %35 to i32
  %37 = icmp eq i32 %36, 4
  br i1 %37, label %38, label %39

38:                                               ; preds = %32
  store ptr @fourbppswaptable, ptr %7, align 8
  br label %40

39:                                               ; preds = %32
  br label %60

40:                                               ; preds = %38
  br label %41

41:                                               ; preds = %40, %31
  br label %42

42:                                               ; preds = %41, %24
  %43 = load ptr, ptr %4, align 8
  store ptr %43, ptr %5, align 8
  br label %44

44:                                               ; preds = %56, %42
  %45 = load ptr, ptr %5, align 8
  %46 = load ptr, ptr %6, align 8
  %47 = icmp ult ptr %45, %46
  br i1 %47, label %48, label %59

48:                                               ; preds = %44
  %49 = load ptr, ptr %7, align 8
  %50 = load ptr, ptr %5, align 8
  %51 = load i8, ptr %50, align 1
  %52 = zext i8 %51 to i64
  %53 = getelementptr inbounds i8, ptr %49, i64 %52
  %54 = load i8, ptr %53, align 1
  %55 = load ptr, ptr %5, align 8
  store i8 %54, ptr %55, align 1
  br label %56

56:                                               ; preds = %48
  %57 = load ptr, ptr %5, align 8
  %58 = getelementptr inbounds i8, ptr %57, i32 1
  store ptr %58, ptr %5, align 8
  br label %44, !llvm.loop !9

59:                                               ; preds = %44
  br label %60

60:                                               ; preds = %59, %39, %2
  ret void
}